Certificate:
    Data:
        Version: 3 (0x2)
        Serial Number: 17401445558261430086 (0xf17e5a89d678b746)
    Signature Algorithm: sha256WithRSAEncryption
        Issuer: C=US, ST=North Carolina, L=Raleigh, O=Katello, OU=SomeOrgUnit, CN=s1rhnp01.capgv.intra.bnb
        Validity
            Not Before: Mar  3 18:04:33 2017 GMT
            Not After : Jan 17 18:04:33 2038 GMT
        Subject: C=US, ST=North Carolina, L=Raleigh, O=Katello, OU=SomeOrgUnit, CN=s1rhnp01.capgv.intra.bnb
        Subject Public Key Info:
            Public Key Algorithm: rsaEncryption
                Public-Key: (2048 bit)
                Modulus:
                    00:d0:68:e9:b5:cd:5c:eb:ae:1d:16:99:7a:8c:22:
                    54:2c:62:a9:3a:28:11:45:35:72:a3:61:d6:5d:76:
                    a1:21:e2:15:a2:d9:f6:57:ac:b2:92:78:c8:b8:31:
                    6a:e4:d6:56:a3:30:74:24:41:85:50:dc:03:42:5c:
                    23:9d:9d:52:13:e8:0e:32:50:fd:0c:e1:cb:a6:1a:
                    b0:17:c8:03:55:18:9c:f0:ae:a3:3f:41:b2:41:03:
                    18:b0:40:b2:da:1e:83:f3:d9:db:33:7a:63:90:f6:
                    a7:05:21:7b:69:15:06:d0:15:77:55:ee:a8:78:a5:
                    3d:ac:76:b2:0a:0e:0e:cb:97:7c:7a:98:16:9b:54:
                    15:5f:ba:11:71:c5:2d:22:b4:c9:29:69:f4:e2:09:
                    57:13:47:02:71:42:dd:75:37:1e:5b:e2:21:1e:12:
                    3a:f9:f8:2e:db:a6:88:da:10:f1:d3:6d:ed:f9:88:
                    f3:62:18:81:4c:c6:1f:d1:5e:e7:7b:70:70:7a:a8:
                    f2:97:45:32:61:3a:59:4e:f6:90:57:a6:3f:ee:fa:
                    92:69:32:9f:d2:74:9a:39:e5:9d:36:a3:3c:a9:1d:
                    37:67:ca:3e:6f:6e:64:be:c6:56:81:54:35:f5:e6:
                    7e:7d:15:0c:5c:69:09:41:8f:1b:f7:77:48:6a:23:
                    43:03
                Exponent: 65537 (0x10001)
        X509v3 extensions:
            X509v3 Basic Constraints: 
                CA:TRUE
            X509v3 Key Usage: 
                Digital Signature, Key Encipherment, Certificate Sign, CRL Sign
            X509v3 Extended Key Usage: 
                TLS Web Server Authentication, TLS Web Client Authentication
            Netscape Cert Type: 
                SSL Server, SSL CA
            Netscape Comment: 
                Katello SSL Tool Generated Certificate
            X509v3 Subject Key Identifier: 
                A7:40:F9:E2:BF:61:96:B9:3E:34:F4:9A:2F:73:41:60:6D:41:DD:E1
            X509v3 Authority Key Identifier: 
                keyid:A7:40:F9:E2:BF:61:96:B9:3E:34:F4:9A:2F:73:41:60:6D:41:DD:E1
                DirName:/C=US/ST=North Carolina/L=Raleigh/O=Katello/OU=SomeOrgUnit/CN=s1rhnp01.capgv.intra.bnb
                serial:F1:7E:5A:89:D6:78:B7:46

    Signature Algorithm: sha256WithRSAEncryption
         45:aa:54:01:f0:2c:1e:7f:34:57:72:8c:bb:99:53:a4:45:42:
         b2:30:2b:cf:d5:13:a6:94:4b:4e:ba:76:f1:0e:bf:59:45:91:
         92:79:59:f7:e2:29:43:d8:66:fc:11:6e:7a:21:0b:37:64:72:
         ec:e7:b3:8b:64:f2:25:2f:ac:90:e9:dc:80:1f:c3:40:f1:05:
         19:8c:1c:f2:55:31:35:ef:0a:02:ff:57:22:60:af:dd:65:f8:
         ec:c9:d5:bb:33:db:ce:a1:d5:cf:02:0c:76:bd:0d:fc:cb:00:
         e3:f7:bf:e3:24:4d:2e:81:dc:c2:6f:16:9a:88:57:8c:e5:60:
         e0:9c:5b:1a:1a:d9:d4:16:1a:87:b4:fb:17:b8:ce:f0:2f:9d:
         4e:d4:09:b3:15:02:eb:db:ae:26:47:58:83:1b:38:43:26:48:
         6f:d1:96:f2:34:92:e5:ba:07:33:e7:8e:af:30:20:a2:fa:a8:
         1b:88:84:35:66:67:27:f0:84:97:8a:a8:8f:44:e2:b7:bd:b4:
         2f:15:90:78:4d:26:1b:a2:7d:6b:5d:17:6a:6b:cd:96:a7:16:
         da:86:88:6e:ed:3d:0c:8d:64:38:ed:fe:48:24:82:ed:d8:47:
         38:7f:f9:19:d1:13:15:37:21:ac:84:1d:9c:0e:ce:61:12:a6:
         60:34:a7:f5
-----BEGIN CERTIFICATE-----
MIIE7zCCA9egAwIBAgIJAPF+WonWeLdGMA0GCSqGSIb3DQEBCwUAMIGDMQswCQYD
VQQGEwJVUzEXMBUGA1UECBMOTm9ydGggQ2Fyb2xpbmExEDAOBgNVBAcTB1JhbGVp
Z2gxEDAOBgNVBAoTB0thdGVsbG8xFDASBgNVBAsTC1NvbWVPcmdVbml0MSEwHwYD
VQQDExhzMXJobnAwMS5jYXBndi5pbnRyYS5ibmIwHhcNMTcwMzAzMTgwNDMzWhcN
MzgwMTE3MTgwNDMzWjCBgzELMAkGA1UEBhMCVVMxFzAVBgNVBAgTDk5vcnRoIENh
cm9saW5hMRAwDgYDVQQHEwdSYWxlaWdoMRAwDgYDVQQKEwdLYXRlbGxvMRQwEgYD
VQQLEwtTb21lT3JnVW5pdDEhMB8GA1UEAxMYczFyaG5wMDEuY2FwZ3YuaW50cmEu
Ym5iMIIBIjANBgkqhkiG9w0BAQEFAAOCAQ8AMIIBCgKCAQEA0Gjptc1c664dFpl6
jCJULGKpOigRRTVyo2HWXXahIeIVotn2V6yyknjIuDFq5NZWozB0JEGFUNwDQlwj
nZ1SE+gOMlD9DOHLphqwF8gDVRic8K6jP0GyQQMYsECy2h6D89nbM3pjkPanBSF7
aRUG0BV3Ve6oeKU9rHayCg4Oy5d8epgWm1QVX7oRccUtIrTJKWn04glXE0cCcULd
dTceW+IhHhI6+fgu26aI2hDx023t+YjzYhiBTMYf0V7ne3Bweqjyl0UyYTpZTvaQ
V6Y/7vqSaTKf0nSaOeWdNqM8qR03Z8o+b25kvsZWgVQ19eZ+fRUMXGkJQY8b93dI
aiNDAwIDAQABo4IBYjCCAV4wDAYDVR0TBAUwAwEB/zALBgNVHQ8EBAMCAaYwHQYD
VR0lBBYwFAYIKwYBBQUHAwEGCCsGAQUFBwMCMBEGCWCGSAGG+EIBAQQEAwICRDA1
BglghkgBhvhCAQ0EKBYmS2F0ZWxsbyBTU0wgVG9vbCBHZW5lcmF0ZWQgQ2VydGlm
aWNhdGUwHQYDVR0OBBYEFKdA+eK/YZa5PjT0mi9zQWBtQd3hMIG4BgNVHSMEgbAw
ga2AFKdA+eK/YZa5PjT0mi9zQWBtQd3hoYGJpIGGMIGDMQswCQYDVQQGEwJVUzEX
MBUGA1UECBMOTm9ydGggQ2Fyb2xpbmExEDAOBgNVBAcTB1JhbGVpZ2gxEDAOBgNV
BAoTB0thdGVsbG8xFDASBgNVBAsTC1NvbWVPcmdVbml0MSEwHwYDVQQDExhzMXJo
bnAwMS5jYXBndi5pbnRyYS5ibmKCCQDxflqJ1ni3RjANBgkqhkiG9w0BAQsFAAOC
AQEARapUAfAsHn80V3KMu5lTpEVCsjArz9UTppRLTrp28Q6/WUWRknlZ9+IpQ9hm
/BFueiELN2Ry7Oezi2TyJS+skOncgB/DQPEFGYwc8lUxNe8KAv9XImCv3WX47MnV
uzPbzqHVzwIMdr0N/MsA4/e/4yRNLoHcwm8WmohXjOVg4JxbGhrZ1BYah7T7F7jO
8C+dTtQJsxUC69uuJkdYgxs4QyZIb9GW8jSS5boHM+eOrzAgovqoG4iENWZnJ/CE
l4qoj0Tit720LxWQeE0mG6J9a10XamvNlqcW2oaIbu09DI1kOO3+SCSC7dhHOH/5
GdETFTchrIQdnA7OYRKmYDSn9Q==
-----END CERTIFICATE-----
